; Function Attrs: mustprogress uwtable
define hidden void @_ZN13pdecl_manager18notify_mk_datatypeERK6symbol(ptr noundef nonnull align 8 dereferenceable(192) %this, ptr nocapture noundef nonnull readonly align 8 dereferenceable(8) %name) local_unnamed_addr #3 align 2 {
entry:
  %m_datatypes_trail = getelementptr inbounds i8, ptr %this, i64 176
  %0 = load ptr, ptr %m_datatypes_trail, align 8
  %cmp.i = icmp eq ptr %0, null
  br i1 %cmp.i, label %if.then.i, label %lor.lhs.false.i

lor.lhs.false.i:                                  ; preds = %entry
  %arrayidx.i = getelementptr inbounds i8, ptr %0, i64 -4
  %1 = load i32, ptr %arrayidx.i, align 4
  %arrayidx4.i = getelementptr inbounds i8, ptr %0, i64 -8
  %2 = load i32, ptr %arrayidx4.i, align 4
  %cmp5.i = icmp eq i32 %1, %2
  br i1 %cmp5.i, label %if.then.i, label %_ZN6vectorI6symbolLb0EjE9push_backERKS0_.exit

if.then.i:                                        ; preds = %lor.lhs.false.i, %entry
  tail call void @_ZN6vectorI6symbolLb0EjE13expand_vectorEv(ptr noundef nonnull align 8 dereferenceable(8) %m_datatypes_trail)
  %.pre.i = load ptr, ptr %m_datatypes_trail, align 8
  %arrayidx8.phi.trans.insert.i = getelementptr inbounds i8, ptr %.pre.i, i64 -4
  %.pre1.i = load i32, ptr %arrayidx8.phi.trans.insert.i, align 4
  br label %_ZN6vectorI6symbolLb0EjE9push_backERKS0_.exit

_ZN6vectorI6symbolLb0EjE9push_backERKS0_.exit:    ; preds = %lor.lhs.false.i, %if.then.i
  %3 = phi i32 [ %.pre1.i, %if.then.i ], [ %1, %lor.lhs.false.i ]
  %4 = phi ptr [ %.pre.i, %if.then.i ], [ %0, %lor.lhs.false.i ]
  %idx.ext.i = zext i32 %3 to i64
  %add.ptr.i = getelementptr inbounds %class.symbol, ptr %4, i64 %idx.ext.i
  %5 = load i64, ptr %name, align 8
  store i64 %5, ptr %add.ptr.i, align 8
  %6 = load ptr, ptr %m_datatypes_trail, align 8
  %arrayidx10.i = getelementptr inbounds i8, ptr %6, i64 -4
  %7 = load i32, ptr %arrayidx10.i, align 4
  %inc.i = add i32 %7, 1
  store i32 %inc.i, ptr %arrayidx10.i, align 4
  ret void
}